target datalayout = "e-m:e-p270:32:32-p271:32:32-p272:64:64-i64:64-i128:128-f80:128-n8:16:32:64-S128"
target triple = "x86_64-pc-linux-gnu"

; Function Attrs: mustprogress nounwind uwtable
define noundef i32 @_Z12BinarySearchPKfiifi(ptr noundef %0, i32 noundef %1, i32 noundef %2, float noundef %3, i32 noundef %4) #0 {
  %6 = alloca i32, align 4
  %7 = alloca ptr, align 8
  %8 = alloca i32, align 4
  %9 = alloca i32, align 4
  %10 = alloca float, align 4
  %11 = alloca i32, align 4
  %12 = alloca i32, align 4
  %13 = alloca i32, align 4
  %14 = alloca i32, align 4
  %15 = alloca i32, align 4
  store ptr %0, ptr %7, align 8, !tbaa !13
  store i32 %1, ptr %8, align 4, !tbaa !9
  store i32 %2, ptr %9, align 4, !tbaa !9
  store float %3, ptr %10, align 4, !tbaa !15
  store i32 %4, ptr %11, align 4, !tbaa !9
  call void @llvm.lifetime.start.p0(i64 4, ptr %12) #3
  call void @llvm.lifetime.start.p0(i64 4, ptr %13) #3
  call void @llvm.lifetime.start.p0(i64 4, ptr %14) #3
  %16 = load i32, ptr %9, align 4, !tbaa !9
  %17 = add nsw i32 %16, 2
  store i32 %17, ptr %13, align 4, !tbaa !9
  %18 = load i32, ptr %8, align 4, !tbaa !9
  %19 = add nsw i32 %18, 1
  store i32 %19, ptr %14, align 4, !tbaa !9
  %20 = load i32, ptr %11, align 4, !tbaa !9
  %21 = icmp sge i32 %20, 0
  br i1 %21, label %22, label %48

22:                                               ; preds = %5
  br label %23

23:                                               ; preds = %45, %22
  %24 = load i32, ptr %13, align 4, !tbaa !9
  %25 = load i32, ptr %14, align 4, !tbaa !9
  %26 = sub nsw i32 %24, %25
  %27 = icmp sgt i32 %26, 1
  br i1 %27, label %28, label %46

28:                                               ; preds = %23
  %29 = load i32, ptr %14, align 4, !tbaa !9
  %30 = load i32, ptr %13, align 4, !tbaa !9
  %31 = add nsw i32 %29, %30
  %32 = ashr i32 %31, 1
  store i32 %32, ptr %12, align 4, !tbaa !9
  %33 = load float, ptr %10, align 4, !tbaa !15
  %34 = load ptr, ptr %7, align 8, !tbaa !13
  %35 = load i32, ptr %12, align 4, !tbaa !9
  %36 = sub nsw i32 %35, 1
  %37 = sext i32 %36 to i64
  %38 = getelementptr inbounds float, ptr %34, i64 %37
  %39 = load float, ptr %38, align 4, !tbaa !15
  %40 = fcmp olt float %33, %39
  br i1 %40, label %41, label %43

41:                                               ; preds = %28
  %42 = load i32, ptr %12, align 4, !tbaa !9
  store i32 %42, ptr %13, align 4, !tbaa !9
  br label %45

43:                                               ; preds = %28
  %44 = load i32, ptr %12, align 4, !tbaa !9
  store i32 %44, ptr %14, align 4, !tbaa !9
  br label %45

45:                                               ; preds = %43, %41
  br label %23, !llvm.loop !21

46:                                               ; preds = %23
  %47 = load i32, ptr %14, align 4, !tbaa !9
  store i32 %47, ptr %6, align 4
  store i32 1, ptr %15, align 4
  br label %75

48:                                               ; preds = %5
  br label %49

49:                                               ; preds = %71, %48
  %50 = load i32, ptr %13, align 4, !tbaa !9
  %51 = load i32, ptr %14, align 4, !tbaa !9
  %52 = sub nsw i32 %50, %51
  %53 = icmp sgt i32 %52, 1
  br i1 %53, label %54, label %72

54:                                               ; preds = %49
  %55 = load i32, ptr %14, align 4, !tbaa !9
  %56 = load i32, ptr %13, align 4, !tbaa !9
  %57 = add nsw i32 %55, %56
  %58 = ashr i32 %57, 1
  store i32 %58, ptr %12, align 4, !tbaa !9
  %59 = load float, ptr %10, align 4, !tbaa !15
  %60 = load ptr, ptr %7, align 8, !tbaa !13
  %61 = load i32, ptr %12, align 4, !tbaa !9
  %62 = sub nsw i32 %61, 1
  %63 = sext i32 %62 to i64
  %64 = getelementptr inbounds float, ptr %60, i64 %63
  %65 = load float, ptr %64, align 4, !tbaa !15
  %66 = fcmp ogt float %59, %65
  br i1 %66, label %67, label %69

67:                                               ; preds = %54
  %68 = load i32, ptr %12, align 4, !tbaa !9
  store i32 %68, ptr %13, align 4, !tbaa !9
  br label %71

69:                                               ; preds = %54
  %70 = load i32, ptr %12, align 4, !tbaa !9
  store i32 %70, ptr %14, align 4, !tbaa !9
  br label %71

71:                                               ; preds = %69, %67
  br label %49, !llvm.loop !22

72:                                               ; preds = %49
  %73 = load i32, ptr %14, align 4, !tbaa !9
  %74 = sub nsw i32 %73, 1
  store i32 %74, ptr %6, align 4
  store i32 1, ptr %15, align 4
  br label %75

75:                                               ; preds = %72, %46
  call void @llvm.lifetime.end.p0(i64 4, ptr %14) #3
  call void @llvm.lifetime.end.p0(i64 4, ptr %13) #3
  call void @llvm.lifetime.end.p0(i64 4, ptr %12) #3
  %76 = load i32, ptr %6, align 4
  ret i32 %76
}