; Function Attrs: mustprogress nofree norecurse nosync nounwind willreturn memory(argmem: read) uwtable
define noundef i32 @_Z12BinarySearchPKfiifi(ptr noundef readonly captures(none) %0, i32 noundef %1, i32 noundef %2, float noundef %3, i32 noundef %4) local_unnamed_addr #2 {
  %6 = add nsw i32 %2, 2
  %7 = add nsw i32 %1, 1
  %8 = icmp sgt i32 %4, -1
  %invariant.gep31 = getelementptr i8, ptr %0, i64 -4
  %9 = sub nsw i32 %6, %7
  %10 = icmp sgt i32 %9, 1
  br i1 %8, label %.preheader, label %.preheader28

.preheader28:                                     ; preds = %5
  br i1 %10, label %.lr.ph, label %.loopexit

.preheader:                                       ; preds = %5
  br i1 %10, label %.lr.ph35, label %.loopexit

.lr.ph35:                                         ; preds = %.preheader, %.lr.ph35
  %.034 = phi i32 [ %.0., %.lr.ph35 ], [ %7, %.preheader ]
  %.02333 = phi i32 [ %..023, %.lr.ph35 ], [ %6, %.preheader ]
  %11 = add nsw i32 %.034, %.02333
  %12 = ashr i32 %11, 1
  %13 = sext i32 %12 to i64
  %gep32 = getelementptr float, ptr %invariant.gep31, i64 %13
  %14 = load float, ptr %gep32, align 4, !tbaa !10
  %15 = fcmp olt float %3, %14
  %..023 = select i1 %15, i32 %12, i32 %.02333
  %.0. = select i1 %15, i32 %.034, i32 %12
  %16 = sub nsw i32 %..023, %.0.
  %17 = icmp sgt i32 %16, 1
  br i1 %17, label %.lr.ph35, label %.loopexit, !llvm.loop !16

.lr.ph:                                           ; preds = %.preheader28, %.lr.ph
  %.230 = phi i32 [ %.2., %.lr.ph ], [ %7, %.preheader28 ]
  %.22529 = phi i32 [ %..225, %.lr.ph ], [ %6, %.preheader28 ]
  %18 = add nsw i32 %.230, %.22529
  %19 = ashr i32 %18, 1
  %20 = sext i32 %19 to i64
  %gep = getelementptr float, ptr %invariant.gep31, i64 %20
  %21 = load float, ptr %gep, align 4, !tbaa !10
  %22 = fcmp ogt float %3, %21
  %..225 = select i1 %22, i32 %19, i32 %.22529
  %.2. = select i1 %22, i32 %.230, i32 %19
  %23 = sub nsw i32 %..225, %.2.
  %24 = icmp sgt i32 %23, 1
  br i1 %24, label %.lr.ph, label %._crit_edge.loopexit, !llvm.loop !17

._crit_edge.loopexit:                             ; preds = %.lr.ph
  %25 = add nsw i32 %.2., -1
  br label %.loopexit

.loopexit:                                        ; preds = %.lr.ph35, %.preheader28, %._crit_edge.loopexit, %.preheader
  %.027 = phi i32 [ %7, %.preheader ], [ %1, %.preheader28 ], [ %25, %._crit_edge.loopexit ], [ %.0., %.lr.ph35 ]
  ret i32 %.027
}